(lp0
L18332970188435773657922664632734705998472334824462506827514979351468019567265695718911475794797445827412646792988250475299895276491727135048978546755843691762890104089383826558113365046320437601057986954081943365651919118915304265864709293070745405694288048164984486642991158543789193426462039545218030599307L
aL1375020586275589456438352900592240926507606439479L
aL302588617818459830707303912440276373239776828328132348601019316866589500077615119498577938922784648516723630827353545914972486216669439011206817083906878334243084140741398247429847727604362809607567520111987665652660325640094026935036693028879718927906427828199596215063158130959200997284581233591991954762L
aI2
a.