(lp0
L8796228394957834242581328783824694129572706226203689865180659443067280626604039552820591858848918681654352538951940501467537448267563116953151958755963108707955812475964527036239577804035946788758585918789248620598470312479644080585709917445327964347155116295158089975971247650159040753634621191659887782139L
aL963454542404659426249611435184403068748917039411L
aL5104949528868391085540508802644664755802517996303405765393486719207720366695484369484339075984378672648028923418179899124478475850726830163531087562647166444103854756714643042589302984122269691999939306649024985234084922696534684090669794393194261847490706364635293404591570469230913931543389690035740449945L
aL151480896761402997430709806641191648011659130087185618880507340754123381298625915000105251718209781620320606621029647797042663160866943429897259005337358445348057305200552082015552695896363453586326698819370556232439536071306597388351428614488915084669753409277438526812921068224591072736049773275743760727864L
a.