(lp0
L8684211509953062543344952549467714343881414042403438826642502828597032968659480761544745468872648478381835931173402677245996772337859390571037475340965784708497210910637237315381870608719743955110376325118647135155365769816955580185149420230925640171402009572368146704406835968323929377564708135078199745579L
aL1102592114278873792507495434146450742475523602523L
aL7072320725777202125052687370650800316068838607590523578998984328235397837418730279292276774258121187640010507543125940043338819080527765811985505862192366368226682661773564348474915119213363702890171519398110450350898097308033062713352871249675656982803675331433643551332684762627335753110874284297466920252L
aL6838937706225026422644272865468062656322474783880243278561943917662809964721761113068018821787709022553002223304144751465674590286912327840670677892177878845940859713893723712073291819468023531497303859146639975896755739373478896080215477119489974166040039512640708786886457234820733394843371518195181748105L
a.L529063952465055405567032721039734424850149477480L
.