(lp0
L7517203477942569665474505700715902039699742662032877425800656515343355743240497675119448923251518711648542845561986113015392622336280114786310362615349111037474268160953379142837269951754872156660541973120351475282071958359330839259217831250443169082183683169468092398924078209905553950035645198383150992459L
aL923849304590659850849310594111627363261664521067L
aL5715419102865870890107929442957516817106550026396751129614134879683115649981345195424983968610461084376611664548035712066472770112773135413250320939711520629603417892374773290068349970674796349911448478711810988517823377629124716188494213422052081663903134264545715989373556993010335872215295641884270325863L
aL6085321643838167179510092920651360404833211988075039731068463697573058793397947381306850988103558996483905319870199467735214162413523429659810690343998267901014234136446795408442605083879272919143987682503360266547055143031105895014019594617828131503004441930970887425328572518637303464159405212417165783845L
a.L368464243504309345571428183893713638928391990649L
.